; Function Attrs: mustprogress nofree norecurse nosync nounwind willreturn memory(argmem: read) uwtable
define noundef zeroext i1 @_Z20gmx_pme_grid_matchesRK9gmx_pme_tPKi(ptr nocapture noundef nonnull readonly align 8 dereferenceable(976) %0, ptr nocapture noundef readonly %1) local_unnamed_addr #3 {
  %3 = getelementptr inbounds i8, ptr %0, i64 80
  %4 = load i32, ptr %3, align 8
  %5 = load i32, ptr %1, align 4
  %6 = icmp eq i32 %4, %5
  br i1 %6, label %7, label %19

7:                                                ; preds = %2
  %8 = getelementptr inbounds i8, ptr %0, i64 84
  %9 = load i32, ptr %8, align 4
  %10 = getelementptr inbounds i8, ptr %1, i64 4
  %11 = load i32, ptr %10, align 4
  %12 = icmp eq i32 %9, %11
  br i1 %12, label %13, label %19

13:                                               ; preds = %7
  %14 = getelementptr inbounds i8, ptr %0, i64 88
  %15 = load i32, ptr %14, align 8
  %16 = getelementptr inbounds i8, ptr %1, i64 8
  %17 = load i32, ptr %16, align 4
  %18 = icmp eq i32 %15, %17
  br label %19

19:                                               ; preds = %13, %7, %2
  %20 = phi i1 [ false, %7 ], [ false, %2 ], [ %18, %13 ]
  ret i1 %20
}